; Function Attrs: mustprogress nounwind uwtable
define dso_local void @_ZN4llvm9MCSectionD2Ev(ptr noundef nonnull align 8 dereferenceable(148) initializes((0, 8)) %0) unnamed_addr #0 align 2 {
  store ptr getelementptr inbounds nuw inrange(-16, 24) (i8, ptr @_ZTVN4llvm9MCSectionE, i64 16), ptr %0, align 8
  %2 = getelementptr inbounds nuw i8, ptr %0, i64 88
  %3 = load ptr, ptr %2, align 8
  %4 = tail call noundef i64 @_ZNK4llvm15SmallVectorBaseIjE4sizeEv(ptr noundef nonnull align 8 dereferenceable(16) %2) #8
  %5 = getelementptr inbounds %"struct.std::pair", ptr %3, i64 %4
  %.not18 = icmp eq i64 %4, 0
  br i1 %.not18, label %._crit_edge22, label %.lr.ph21

.lr.ph21:                                         ; preds = %1, %._crit_edge
  %.019 = phi ptr [ %9, %._crit_edge ], [ %3, %1 ]
  %6 = getelementptr inbounds nuw i8, ptr %.019, i64 8
  %7 = load ptr, ptr %6, align 8
  %.not1516 = icmp eq ptr %7, null
  br i1 %.not1516, label %._crit_edge, label %.lr.ph

.lr.ph:                                           ; preds = %.lr.ph21, %.lr.ph
  %.01417 = phi ptr [ %8, %.lr.ph ], [ %7, %.lr.ph21 ]
  %8 = load ptr, ptr %.01417, align 8
  tail call void @_ZN4llvm10MCFragment7destroyEv(ptr noundef nonnull align 8 dereferenceable(30) %.01417) #8
  %.not15 = icmp eq ptr %8, null
  br i1 %.not15, label %._crit_edge, label %.lr.ph, !llvm.loop !4

._crit_edge:                                      ; preds = %.lr.ph, %.lr.ph21
  %9 = getelementptr inbounds nuw i8, ptr %.019, i64 24
  %.not = icmp eq ptr %9, %5
  br i1 %.not, label %._crit_edge22, label %.lr.ph21

._crit_edge22:                                    ; preds = %._crit_edge, %1
  %10 = tail call noundef i64 @_ZNK4llvm15SmallVectorBaseIjE4sizeEv(ptr noundef nonnull align 8 dereferenceable(40) %2) #8
  %11 = load ptr, ptr %2, align 8
  %12 = getelementptr inbounds nuw i8, ptr %0, i64 104
  %13 = icmp eq ptr %11, %12
  br i1 %13, label %_ZN4llvm11SmallVectorISt4pairIjNS_9MCSection8FragListEELj1EED2Ev.exit, label %14

14:                                               ; preds = %._crit_edge22
  tail call void @free(ptr noundef %11) #8
  br label %_ZN4llvm11SmallVectorISt4pairIjNS_9MCSection8FragListEELj1EED2Ev.exit

_ZN4llvm11SmallVectorISt4pairIjNS_9MCSection8FragListEELj1EED2Ev.exit: ; preds = %._crit_edge22, %14
  ret void
}